; Function Attrs: mustprogress uwtable
define void @_ZN6icu_776number4impl14SymbolsWrapper5setToEPKNS_15NumberingSystemE(ptr noundef nonnull align 8 captures(none) dereferenceable(16) %0, ptr noundef %1) local_unnamed_addr #1 align 2 {
  %3 = load i32, ptr %0, align 8, !tbaa !15
  switch i32 %3, label %_ZN6icu_776number4impl14SymbolsWrapper9doCleanupEv.exit [
    i32 2, label %8
    i32 1, label %4
  ]

4:                                                ; preds = %2
  %5 = getelementptr inbounds nuw i8, ptr %0, i64 8
  %6 = load ptr, ptr %5, align 8, !tbaa !18
  %7 = icmp eq ptr %6, null
  br i1 %7, label %_ZN6icu_776number4impl14SymbolsWrapper9doCleanupEv.exit, label %.sink.split.i

8:                                                ; preds = %2
  %9 = getelementptr inbounds nuw i8, ptr %0, i64 8
  %10 = load ptr, ptr %9, align 8, !tbaa !18
  %11 = icmp eq ptr %10, null
  br i1 %11, label %_ZN6icu_776number4impl14SymbolsWrapper9doCleanupEv.exit, label %.sink.split.i

.sink.split.i:                                    ; preds = %8, %4
  %.sink5.i = phi ptr [ %6, %4 ], [ %10, %8 ]
  %12 = load ptr, ptr %.sink5.i, align 8, !tbaa !19
  %13 = getelementptr inbounds nuw i8, ptr %12, i64 8
  %14 = load ptr, ptr %13, align 8
  tail call void %14(ptr noundef nonnull align 8 dereferenceable(86) %.sink5.i) #13
  br label %_ZN6icu_776number4impl14SymbolsWrapper9doCleanupEv.exit

_ZN6icu_776number4impl14SymbolsWrapper9doCleanupEv.exit: ; preds = %2, %4, %8, %.sink.split.i
  store i32 2, ptr %0, align 8, !tbaa !15
  %15 = getelementptr inbounds nuw i8, ptr %0, i64 8
  store ptr %1, ptr %15, align 8, !tbaa !18
  ret void
}